; Function Attrs: nounwind uwtable
define hidden ptr @uv__reallocf(ptr noundef %0, i64 noundef %1) local_unnamed_addr #0 {
  %.not.i = icmp eq i64 %1, 0
  br i1 %.not.i, label %.sink.split, label %uv__realloc.exit

uv__realloc.exit:                                 ; preds = %2
  %3 = load ptr, ptr @uv__allocator.1, align 8
  %4 = tail call ptr %3(ptr noundef %0, i64 noundef %1) #26
  %5 = icmp eq ptr %4, null
  br i1 %5, label %.sink.split, label %9

.sink.split:                                      ; preds = %uv__realloc.exit, %2
  %6 = tail call ptr @__errno_location() #27
  %7 = load i32, ptr %6, align 4
  %8 = load ptr, ptr @uv__allocator.3, align 8
  tail call void %8(ptr noundef %0) #26
  store i32 %7, ptr %6, align 4
  br label %9

9:                                                ; preds = %.sink.split, %uv__realloc.exit
  %.0.i8 = phi ptr [ %4, %uv__realloc.exit ], [ null, %.sink.split ]
  ret ptr %.0.i8
}